target datalayout = "e-m:e-p270:32:32-p271:32:32-p272:64:64-i64:64-i128:128-f80:128-n8:16:32:64-S128"
target triple = "x86_64-pc-linux-gnu"

@proto_mac_mgmt_msg_ulmap_decoder = internal global i32 0, align 4
@.str.517 = private unnamed_addr constant [21 x i8] c"WiMax ULMAP Messages\00", align 1
@.str.518 = private unnamed_addr constant [12 x i8] c"WiMax ULMAP\00", align 1
@.str.519 = private unnamed_addr constant [10 x i8] c"wmx.ulmap\00", align 1
@.str.520 = private unnamed_addr constant [27 x i8] c"mac_mgmt_msg_ulmap_handler\00", align 1
@ulmap_handle = internal global ptr null, align 8

; Function Attrs: null_pointer_is_valid sspstrong uwtable
define hidden void @proto_register_mac_mgmt_msg_ulmap() #1 {
  %1 = alloca ptr, align 8
  call void @llvm.lifetime.start.p0(i64 8, ptr %1) #5
  %2 = call i32 @proto_register_protocol(ptr noundef @.str.517, ptr noundef @.str.518, ptr noundef @.str.519)
  store i32 %2, ptr @proto_mac_mgmt_msg_ulmap_decoder, align 4
  %3 = load i32, ptr @proto_mac_mgmt_msg_ulmap_decoder, align 4
  call void @proto_register_field_array(i32 noundef %3, ptr noundef @proto_register_mac_mgmt_msg_ulmap.hf, i32 noundef 322)
  call void @proto_register_subtree_array(ptr noundef @proto_register_mac_mgmt_msg_ulmap.ett, i32 noundef 42)
  %4 = load i32, ptr @proto_mac_mgmt_msg_ulmap_decoder, align 4
  %5 = call ptr @expert_register_protocol(i32 noundef %4)
  store ptr %5, ptr %1, align 8
  %6 = load ptr, ptr %1, align 8
  call void @expert_register_field_array(ptr noundef %6, ptr noundef @proto_register_mac_mgmt_msg_ulmap.ei, i32 noundef 1)
  %7 = load i32, ptr @proto_mac_mgmt_msg_ulmap_decoder, align 4
  %8 = call ptr @register_dissector(ptr noundef @.str.520, ptr noundef @dissect_mac_mgmt_msg_ulmap_decoder, i32 noundef %7)
  store ptr %8, ptr @ulmap_handle, align 8
  call void @llvm.lifetime.end.p0(i64 8, ptr %1) #5
  ret void
}