; Function Attrs: null_pointer_is_valid sspstrong uwtable
define hidden void @proto_register_mac_mgmt_msg_ulmap() local_unnamed_addr #1 {
  %1 = tail call i32 @proto_register_protocol(ptr noundef nonnull @.str.517, ptr noundef nonnull @.str.518, ptr noundef nonnull @.str.519)
  store i32 %1, ptr @proto_mac_mgmt_msg_ulmap_decoder, align 4
  tail call void @proto_register_field_array(i32 noundef %1, ptr noundef nonnull @proto_register_mac_mgmt_msg_ulmap.hf, i32 noundef 322)
  tail call void @proto_register_subtree_array(ptr noundef nonnull @proto_register_mac_mgmt_msg_ulmap.ett, i32 noundef 42)
  %2 = load i32, ptr @proto_mac_mgmt_msg_ulmap_decoder, align 4
  %3 = tail call ptr @expert_register_protocol(i32 noundef %2)
  tail call void @expert_register_field_array(ptr noundef %3, ptr noundef nonnull @proto_register_mac_mgmt_msg_ulmap.ei, i32 noundef 1)
  %4 = load i32, ptr @proto_mac_mgmt_msg_ulmap_decoder, align 4
  %5 = tail call ptr @register_dissector(ptr noundef nonnull @.str.520, ptr noundef nonnull @dissect_mac_mgmt_msg_ulmap_decoder, i32 noundef %4)
  store ptr %5, ptr @ulmap_handle, align 8
  ret void
}